target datalayout = "e-m:e-p270:32:32-p271:32:32-p272:64:64-i64:64-i128:128-f80:128-n8:16:32:64-S128"
target triple = "x86_64-pc-linux-gnu"

%struct.git_zstream = type { %struct.z_stream_s, i64, i64, i64, i64, ptr, ptr }
%struct.z_stream_s = type { ptr, i32, i64, ptr, i32, i64, ptr, ptr, ptr, ptr, ptr, i32, i64, i64 }

@gzstream = internal global %struct.git_zstream zeroinitializer, align 8
@outbuf = internal global [16384 x i8] zeroinitializer, align 16
@.str.36 = private unnamed_addr constant [19 x i8] c"deflate error (%d)\00", align 1

; Function Attrs: nounwind uwtable
define internal void @tgz_deflate(i32 noundef %0) #0 {
  %2 = alloca i32, align 4
  %3 = alloca i32, align 4
  %4 = alloca i32, align 4
  store i32 %0, ptr %2, align 4, !tbaa !4
  br label %5

5:                                                ; preds = %41, %1
  %6 = load i64, ptr getelementptr inbounds nuw (%struct.git_zstream, ptr @gzstream, i32 0, i32 1), align 8, !tbaa !95
  %7 = icmp ne i64 %6, 0
  br i1 %7, label %11, label %8

8:                                                ; preds = %5
  %9 = load i32, ptr %2, align 4, !tbaa !4
  %10 = icmp eq i32 %9, 4
  br label %11

11:                                               ; preds = %8, %5
  %12 = phi i1 [ true, %5 ], [ %10, %8 ]
  br i1 %12, label %13, label %42

13:                                               ; preds = %11
  call void @llvm.lifetime.start.p0(i64 4, ptr %3) #9
  %14 = load i32, ptr %2, align 4, !tbaa !4
  %15 = call i32 @git_deflate(ptr noundef @gzstream, i32 noundef %14)
  store i32 %15, ptr %3, align 4, !tbaa !4
  %16 = load i64, ptr getelementptr inbounds nuw (%struct.git_zstream, ptr @gzstream, i32 0, i32 2), align 8, !tbaa !89
  %17 = icmp ne i64 %16, 0
  br i1 %17, label %18, label %21

18:                                               ; preds = %13
  %19 = load i32, ptr %3, align 4, !tbaa !4
  %20 = icmp eq i32 %19, 1
  br i1 %20, label %21, label %29

21:                                               ; preds = %18, %13
  %22 = load ptr, ptr getelementptr inbounds nuw (%struct.git_zstream, ptr @gzstream, i32 0, i32 6), align 8, !tbaa !85
  %23 = ptrtoint ptr %22 to i64
  %24 = sub i64 %23, ptrtoint (ptr @outbuf to i64)
  call void @write_or_die(i32 noundef 1, ptr noundef @outbuf, i64 noundef %24)
  store ptr @outbuf, ptr getelementptr inbounds nuw (%struct.git_zstream, ptr @gzstream, i32 0, i32 6), align 8, !tbaa !85
  store i64 16384, ptr getelementptr inbounds nuw (%struct.git_zstream, ptr @gzstream, i32 0, i32 2), align 8, !tbaa !89
  %25 = load i32, ptr %3, align 4, !tbaa !4
  %26 = icmp eq i32 %25, 1
  br i1 %26, label %27, label %28

27:                                               ; preds = %21
  store i32 3, ptr %4, align 4
  br label %39

28:                                               ; preds = %21
  br label %29

29:                                               ; preds = %28, %18
  %30 = load i32, ptr %3, align 4, !tbaa !4
  %31 = icmp ne i32 %30, 0
  br i1 %31, label %32, label %38

32:                                               ; preds = %29
  %33 = load i32, ptr %3, align 4, !tbaa !4
  %34 = icmp ne i32 %33, -5
  br i1 %34, label %35, label %38

35:                                               ; preds = %32
  %36 = call ptr @_(ptr noundef @.str.36)
  %37 = load i32, ptr %3, align 4, !tbaa !4
  call void (ptr, ...) @die(ptr noundef %36, i32 noundef %37) #11
  unreachable

38:                                               ; preds = %32, %29
  store i32 0, ptr %4, align 4
  br label %39

39:                                               ; preds = %38, %27
  call void @llvm.lifetime.end.p0(i64 4, ptr %3) #9
  %40 = load i32, ptr %4, align 4
  switch i32 %40, label %43 [
    i32 0, label %41
    i32 3, label %42
  ]

41:                                               ; preds = %39
  br label %5, !llvm.loop !96

42:                                               ; preds = %39, %11
  ret void

43:                                               ; preds = %39
  unreachable
}

; Function Attrs: nounwind uwtable
define internal void @tgz_write_block(ptr noundef %0) #0 {
  %2 = alloca ptr, align 8
  store ptr %0, ptr %2, align 8, !tbaa !19
  %3 = load ptr, ptr %2, align 8, !tbaa !19
  store ptr %3, ptr getelementptr inbounds nuw (%struct.git_zstream, ptr @gzstream, i32 0, i32 5), align 8, !tbaa !94
  store i64 10240, ptr getelementptr inbounds nuw (%struct.git_zstream, ptr @gzstream, i32 0, i32 1), align 8, !tbaa !95
  call void @tgz_deflate(i32 noundef 0)
  ret void
}