; Function Attrs: nounwind uwtable
define internal void @tgz_write_block(ptr noundef %0) #0 {
.lr.ph.i:
  store ptr %0, ptr getelementptr inbounds nuw (i8, ptr @gzstream, i64 144), align 8, !tbaa !84
  store i64 10240, ptr getelementptr inbounds nuw (i8, ptr @gzstream, i64 112), align 8, !tbaa !85
  br label %.lr.ph.split.i

.lr.ph.split.i:                                   ; preds = %11, %.lr.ph.i
  %1 = tail call i32 @git_deflate(ptr noundef nonnull @gzstream, i32 noundef 0) #11
  %2 = load i64, ptr getelementptr inbounds nuw (i8, ptr @gzstream, i64 120), align 8, !tbaa !79
  %3 = icmp eq i64 %2, 0
  %4 = icmp eq i32 %1, 1
  %or.cond.i = select i1 %3, i1 true, i1 %4
  br i1 %or.cond.i, label %5, label %9

5:                                                ; preds = %.lr.ph.split.i
  %6 = load ptr, ptr getelementptr inbounds nuw (i8, ptr @gzstream, i64 152), align 8, !tbaa !75
  %7 = ptrtoint ptr %6 to i64
  %8 = sub i64 %7, ptrtoint (ptr @outbuf to i64)
  tail call void @write_or_die(i32 noundef 1, ptr noundef nonnull @outbuf, i64 noundef %8) #11
  store ptr @outbuf, ptr getelementptr inbounds nuw (i8, ptr @gzstream, i64 152), align 8, !tbaa !75
  store i64 16384, ptr getelementptr inbounds nuw (i8, ptr @gzstream, i64 120), align 8, !tbaa !79
  br i1 %4, label %tgz_deflate.exit, label %9

9:                                                ; preds = %5, %.lr.ph.split.i
  switch i32 %1, label %.split.us.i [
    i32 -5, label %11
    i32 0, label %11
  ]

.split.us.i:                                      ; preds = %9
  %10 = tail call fastcc ptr @_(ptr noundef nonnull @.str.36)
  tail call void (ptr, ...) @die(ptr noundef %10, i32 noundef %1) #12
  unreachable

11:                                               ; preds = %9, %9
  %12 = load i64, ptr getelementptr inbounds nuw (i8, ptr @gzstream, i64 112), align 8, !tbaa !85
  %.not.i = icmp eq i64 %12, 0
  br i1 %.not.i, label %tgz_deflate.exit, label %.lr.ph.split.i

tgz_deflate.exit:                                 ; preds = %5, %11
  ret void
}